; Function Attrs: mustprogress nounwind uwtable
define void @_ZN8nanobind6detail16property_installEP7_objectPKcS2_S2_(ptr noundef %0, ptr noundef %1, ptr noundef %2, ptr noundef %3) local_unnamed_addr #9 personality ptr @__gxx_personality_v0 {
  invoke fastcc void @_ZN8nanobind6detailL21property_install_implEP11_typeobjectP7_objectPKcS4_S4_(ptr noundef nonnull @PyProperty_Type, ptr noundef %0, ptr noundef %1, ptr noundef %2, ptr noundef %3)
          to label %5 unwind label %6

5:                                                ; preds = %4
  ret void

6:                                                ; preds = %4
  %7 = landingpad { ptr, i32 }
          catch ptr null
  %8 = extractvalue { ptr, i32 } %7, 0
  tail call void @__clang_call_terminate(ptr %8) #29
  unreachable
}